target datalayout = "e-m:e-p270:32:32-p271:32:32-p272:64:64-i64:64-i128:128-f80:128-n8:16:32:64-S128"
target triple = "x86_64-pc-linux-gnu"

@_ZN12_GLOBAL__N_112gUnicodeSetsE = internal global [24 x ptr] zeroinitializer, align 16

; Function Attrs: mustprogress uwtable
define internal void @_ZN12_GLOBAL__N_17saveSetEN6icu_777unisets3KeyERKNS0_13UnicodeStringER10UErrorCode(i32 noundef %0, ptr noundef nonnull align 8 dereferenceable(64) %1, ptr noundef nonnull align 4 dereferenceable(4) %2) #0 personality ptr @__gxx_personality_v0 {
  %4 = alloca i32, align 4
  %5 = alloca ptr, align 8
  %6 = alloca ptr, align 8
  %7 = alloca i1, align 1
  %8 = alloca ptr, align 8
  %9 = alloca i32, align 4
  store i32 %0, ptr %4, align 4, !tbaa !3
  store ptr %1, ptr %5, align 8, !tbaa !24
  store ptr %2, ptr %6, align 8, !tbaa !12
  %10 = call noundef ptr @_ZN6icu_777UMemorynwEm(i64 noundef 200) #11
  %11 = icmp eq ptr %10, null
  store i1 false, ptr %7, align 1
  br i1 %11, label %16, label %12

12:                                               ; preds = %3
  store i1 true, ptr %7, align 1
  %13 = load ptr, ptr %5, align 8, !tbaa !24
  %14 = load ptr, ptr %6, align 8, !tbaa !12
  invoke void @_ZN6icu_7710UnicodeSetC1ERKNS_13UnicodeStringER10UErrorCode(ptr noundef nonnull align 8 dereferenceable(200) %10, ptr noundef nonnull align 8 dereferenceable(64) %13, ptr noundef nonnull align 4 dereferenceable(4) %14)
          to label %15 unwind label %21

15:                                               ; preds = %12
  br label %16

16:                                               ; preds = %15, %3
  %17 = phi ptr [ %10, %15 ], [ null, %3 ]
  %18 = load i32, ptr %4, align 4, !tbaa !3
  %19 = sext i32 %18 to i64
  %20 = getelementptr inbounds [24 x ptr], ptr @_ZN12_GLOBAL__N_112gUnicodeSetsE, i64 0, i64 %19
  store ptr %17, ptr %20, align 8, !tbaa !19
  ret void

21:                                               ; preds = %12
  %22 = landingpad { ptr, i32 }
          cleanup
  %23 = extractvalue { ptr, i32 } %22, 0
  store ptr %23, ptr %8, align 8
  %24 = extractvalue { ptr, i32 } %22, 1
  store i32 %24, ptr %9, align 4
  %25 = load i1, ptr %7, align 1
  br i1 %25, label %26, label %27

26:                                               ; preds = %21
  call void @_ZN6icu_777UMemorydlEPv(ptr noundef %10) #11
  br label %27

27:                                               ; preds = %26, %21
  br label %28

28:                                               ; preds = %27
  %29 = load ptr, ptr %8, align 8
  %30 = load i32, ptr %9, align 4
  %31 = insertvalue { ptr, i32 } poison, ptr %29, 0
  %32 = insertvalue { ptr, i32 } %31, i32 %30, 1
  resume { ptr, i32 } %32
}