; Function Attrs: mustprogress uwtable
define internal fastcc void @_ZN12_GLOBAL__N_17saveSetEN6icu_777unisets3KeyERKNS0_13UnicodeStringER10UErrorCode(i32 noundef range(i32 3, 21) %0, ptr noundef nonnull align 8 dereferenceable(64) %1, ptr noundef nonnull align 4 dereferenceable(4) %2) unnamed_addr #0 personality ptr @__gxx_personality_v0 {
  %4 = tail call noundef ptr @_ZN6icu_777UMemorynwEm(i64 noundef 200) #9
  %5 = icmp eq ptr %4, null
  br i1 %5, label %7, label %6

6:                                                ; preds = %3
  invoke void @_ZN6icu_7710UnicodeSetC1ERKNS_13UnicodeStringER10UErrorCode(ptr noundef nonnull align 8 dereferenceable(200) %4, ptr noundef nonnull align 8 dereferenceable(64) %1, ptr noundef nonnull align 4 dereferenceable(4) %2)
          to label %7 unwind label %10

7:                                                ; preds = %6, %3
  %8 = zext nneg i32 %0 to i64
  %9 = getelementptr inbounds nuw [24 x ptr], ptr @_ZN12_GLOBAL__N_112gUnicodeSetsE, i64 0, i64 %8
  store ptr %4, ptr %9, align 8, !tbaa !10
  ret void

10:                                               ; preds = %6
  %11 = landingpad { ptr, i32 }
          cleanup
  tail call void @_ZN6icu_777UMemorydlEPv(ptr noundef nonnull %4) #9
  resume { ptr, i32 } %11
}